target datalayout = "e-m:e-p270:32:32-p271:32:32-p272:64:64-i64:64-i128:128-f80:128-n8:16:32:64-S128"
target triple = "x86_64-pc-linux-gnu"

%struct.prov_drbg_st = type { ptr, ptr, ptr, ptr, ptr, ptr, ptr, ptr, ptr, ptr, ptr, ptr, ptr, ptr, i32, i16, i32, i64, i64, i64, i64, i64, i64, i64, i32, i32, i64, i64, i32, i32, i32, i64, i32, ptr, ptr, ptr, ptr, ptr, ptr }
%struct.rand_drbg_ctr_st = type { ptr, ptr, ptr, ptr, ptr, i64, i32, [32 x i8], [16 x i8], [16 x i8], i64, [48 x i8] }

; Function Attrs: nounwind uwtable
define internal i32 @drbg_ctr_uninstantiate(ptr noundef %0) #0 {
  %2 = alloca ptr, align 8
  %3 = alloca ptr, align 8
  store ptr %0, ptr %2, align 8, !tbaa !9
  call void @llvm.lifetime.start.p0(i64 8, ptr %3) #6
  %4 = load ptr, ptr %2, align 8, !tbaa !9
  %5 = getelementptr inbounds nuw %struct.prov_drbg_st, ptr %4, i32 0, i32 33
  %6 = load ptr, ptr %5, align 8, !tbaa !11
  store ptr %6, ptr %3, align 8, !tbaa !17
  %7 = load ptr, ptr %3, align 8, !tbaa !17
  %8 = getelementptr inbounds nuw %struct.rand_drbg_ctr_st, ptr %7, i32 0, i32 7
  %9 = getelementptr inbounds [32 x i8], ptr %8, i64 0, i64 0
  call void @OPENSSL_cleanse(ptr noundef %9, i64 noundef 32)
  %10 = load ptr, ptr %3, align 8, !tbaa !17
  %11 = getelementptr inbounds nuw %struct.rand_drbg_ctr_st, ptr %10, i32 0, i32 8
  %12 = getelementptr inbounds [16 x i8], ptr %11, i64 0, i64 0
  call void @OPENSSL_cleanse(ptr noundef %12, i64 noundef 16)
  %13 = load ptr, ptr %3, align 8, !tbaa !17
  %14 = getelementptr inbounds nuw %struct.rand_drbg_ctr_st, ptr %13, i32 0, i32 9
  %15 = getelementptr inbounds [16 x i8], ptr %14, i64 0, i64 0
  call void @OPENSSL_cleanse(ptr noundef %15, i64 noundef 16)
  %16 = load ptr, ptr %3, align 8, !tbaa !17
  %17 = getelementptr inbounds nuw %struct.rand_drbg_ctr_st, ptr %16, i32 0, i32 11
  %18 = getelementptr inbounds [48 x i8], ptr %17, i64 0, i64 0
  call void @OPENSSL_cleanse(ptr noundef %18, i64 noundef 48)
  %19 = load ptr, ptr %3, align 8, !tbaa !17
  %20 = getelementptr inbounds nuw %struct.rand_drbg_ctr_st, ptr %19, i32 0, i32 10
  store i64 0, ptr %20, align 8, !tbaa !41
  %21 = load ptr, ptr %2, align 8, !tbaa !9
  %22 = call i32 @ossl_prov_drbg_uninstantiate(ptr noundef %21)
  call void @llvm.lifetime.end.p0(i64 8, ptr %3) #6
  ret i32 %22
}

; Function Attrs: nounwind uwtable
define internal i32 @drbg_ctr_uninstantiate_wrapper(ptr noundef %0) #0 {
  %2 = alloca i32, align 4
  %3 = alloca ptr, align 8
  %4 = alloca ptr, align 8
  %5 = alloca i32, align 4
  %6 = alloca i32, align 4
  store ptr %0, ptr %3, align 8, !tbaa !3
  call void @llvm.lifetime.start.p0(i64 8, ptr %4) #6
  %7 = load ptr, ptr %3, align 8, !tbaa !3
  store ptr %7, ptr %4, align 8, !tbaa !9
  call void @llvm.lifetime.start.p0(i64 4, ptr %5) #6
  %8 = load ptr, ptr %4, align 8, !tbaa !9
  %9 = getelementptr inbounds nuw %struct.prov_drbg_st, ptr %8, i32 0, i32 0
  %10 = load ptr, ptr %9, align 8, !tbaa !33
  %11 = icmp ne ptr %10, null
  br i1 %11, label %12, label %19

12:                                               ; preds = %1
  %13 = load ptr, ptr %4, align 8, !tbaa !9
  %14 = getelementptr inbounds nuw %struct.prov_drbg_st, ptr %13, i32 0, i32 0
  %15 = load ptr, ptr %14, align 8, !tbaa !33
  %16 = call i32 @CRYPTO_THREAD_write_lock(ptr noundef %15)
  %17 = icmp ne i32 %16, 0
  br i1 %17, label %19, label %18

18:                                               ; preds = %12
  store i32 0, ptr %2, align 4
  store i32 1, ptr %6, align 4
  br label %33

19:                                               ; preds = %12, %1
  %20 = load ptr, ptr %4, align 8, !tbaa !9
  %21 = call i32 @drbg_ctr_uninstantiate(ptr noundef %20)
  store i32 %21, ptr %5, align 4, !tbaa !27
  %22 = load ptr, ptr %4, align 8, !tbaa !9
  %23 = getelementptr inbounds nuw %struct.prov_drbg_st, ptr %22, i32 0, i32 0
  %24 = load ptr, ptr %23, align 8, !tbaa !33
  %25 = icmp ne ptr %24, null
  br i1 %25, label %26, label %31

26:                                               ; preds = %19
  %27 = load ptr, ptr %4, align 8, !tbaa !9
  %28 = getelementptr inbounds nuw %struct.prov_drbg_st, ptr %27, i32 0, i32 0
  %29 = load ptr, ptr %28, align 8, !tbaa !33
  %30 = call i32 @CRYPTO_THREAD_unlock(ptr noundef %29)
  br label %31

31:                                               ; preds = %26, %19
  %32 = load i32, ptr %5, align 4, !tbaa !27
  store i32 %32, ptr %2, align 4
  store i32 1, ptr %6, align 4
  br label %33

33:                                               ; preds = %31, %18
  call void @llvm.lifetime.end.p0(i64 4, ptr %5) #6
  call void @llvm.lifetime.end.p0(i64 8, ptr %4) #6
  %34 = load i32, ptr %2, align 4
  ret i32 %34
}