; Function Attrs: nounwind uwtable
define internal i32 @drbg_ctr_uninstantiate_wrapper(ptr noundef %0) #0 {
  %2 = load ptr, ptr %0, align 8, !tbaa !20
  %.not = icmp eq ptr %2, null
  br i1 %.not, label %5, label %3

3:                                                ; preds = %1
  %4 = tail call i32 @CRYPTO_THREAD_write_lock(ptr noundef nonnull %2) #7
  %.not9 = icmp eq i32 %4, 0
  br i1 %.not9, label %17, label %5

5:                                                ; preds = %3, %1
  %6 = getelementptr inbounds nuw i8, ptr %0, i64 240
  %7 = load ptr, ptr %6, align 8, !tbaa !3
  %8 = getelementptr inbounds nuw i8, ptr %7, i64 52
  tail call void @OPENSSL_cleanse(ptr noundef nonnull %8, i64 noundef 32) #7
  %9 = getelementptr inbounds nuw i8, ptr %7, i64 84
  tail call void @OPENSSL_cleanse(ptr noundef nonnull %9, i64 noundef 16) #7
  %10 = getelementptr inbounds nuw i8, ptr %7, i64 100
  tail call void @OPENSSL_cleanse(ptr noundef nonnull %10, i64 noundef 16) #7
  %11 = getelementptr inbounds nuw i8, ptr %7, i64 128
  tail call void @OPENSSL_cleanse(ptr noundef nonnull %11, i64 noundef 48) #7
  %12 = getelementptr inbounds nuw i8, ptr %7, i64 120
  store i64 0, ptr %12, align 8, !tbaa !21
  %13 = tail call i32 @ossl_prov_drbg_uninstantiate(ptr noundef nonnull %0) #7
  %14 = load ptr, ptr %0, align 8, !tbaa !20
  %.not10 = icmp eq ptr %14, null
  br i1 %.not10, label %17, label %15

15:                                               ; preds = %5
  %16 = tail call i32 @CRYPTO_THREAD_unlock(ptr noundef nonnull %14) #7
  br label %17

17:                                               ; preds = %5, %15, %3
  %.0 = phi i32 [ 0, %3 ], [ %13, %15 ], [ %13, %5 ]
  ret i32 %.0
}